; Function Attrs: mustprogress uwtable
define void @_ZN6icu_7516LocaleKeyFactoryC2EiRKNS_13UnicodeStringE(ptr noundef nonnull align 8 dereferenceable(76) %this, i32 noundef %coverage, ptr noundef nonnull align 8 dereferenceable(64) %name) unnamed_addr #1 align 2 personality ptr @__gxx_personality_v0 {
entry:
  store ptr getelementptr inbounds ({ [11 x ptr] }, ptr @_ZTVN6icu_7516LocaleKeyFactoryE, i64 0, i32 0, i64 2), ptr %this, align 8
  %_name = getelementptr inbounds i8, ptr %this, i64 8
  invoke void @_ZN6icu_7513UnicodeStringC1ERKS0_(ptr noundef nonnull align 8 dereferenceable(64) %_name, ptr noundef nonnull align 8 dereferenceable(64) %name)
          to label %invoke.cont unwind label %lpad

invoke.cont:                                      ; preds = %entry
  %_coverage = getelementptr inbounds i8, ptr %this, i64 72
  store i32 %coverage, ptr %_coverage, align 8
  ret void

lpad:                                             ; preds = %entry
  %0 = landingpad { ptr, i32 }
          cleanup
  tail call void @_ZN6icu_7517ICUServiceFactoryD2Ev(ptr noundef nonnull align 8 dereferenceable(8) %this) #10
  resume { ptr, i32 } %0
}